target datalayout = "e-m:e-p270:32:32-p271:32:32-p272:64:64-i64:64-i128:128-f80:128-n8:16:32:64-S128"
target triple = "x86_64-pc-linux-gnu"

%class.Handle = type { ptr }
%class.SignatureStream = type { ptr, i32, i32, i32, i32, i8, i32, ptr, ptr }
%class.MutexLocker = type { %class.MutexLockerImpl }
%class.MutexLockerImpl = type { ptr }
%class.Symbol = type { i32, i16, [2 x i8] }

@SystemDictionary_lock = external global ptr, align 8
@_ZN15ClassLoaderData27_the_null_class_loader_dataE = external global ptr, align 8
@_ZN8Universe17_typeArrayKlassesE = external global [12 x ptr], align 16

; Function Attrs: mustprogress nounwind uwtable
define linkonce_odr hidden noundef ptr @_ZN15ClassLoaderData26the_null_class_loader_dataEv() #1 comdat align 2 {
  %1 = load ptr, ptr @_ZN15ClassLoaderData27_the_null_class_loader_dataE, align 8
  ret ptr %1
}

; Function Attrs: mustprogress nounwind uwtable
define linkonce_odr hidden noundef ptr @_ZN15ClassLoaderData25class_loader_data_or_nullEP7oopDesc(ptr noundef %0) #1 comdat align 2 {
  %2 = alloca ptr, align 8
  %3 = alloca ptr, align 8
  store ptr %0, ptr %3, align 8
  %4 = load ptr, ptr %3, align 8
  %5 = icmp eq ptr %4, null
  br i1 %5, label %6, label %8

6:                                                ; preds = %1
  %7 = call noundef ptr @_ZN15ClassLoaderData26the_null_class_loader_dataEv()
  store ptr %7, ptr %2, align 8
  br label %11

8:                                                ; preds = %1
  %9 = load ptr, ptr %3, align 8
  %10 = call noundef ptr @_ZN21java_lang_ClassLoader19loader_data_acquireEP7oopDesc(ptr noundef %9)
  store ptr %10, ptr %2, align 8
  br label %11

11:                                               ; preds = %8, %6
  %12 = load ptr, ptr %2, align 8
  ret ptr %12
}

; Function Attrs: mustprogress nounwind uwtable
define linkonce_odr hidden noundef ptr @_ZNK6Handle3objEv(ptr noundef nonnull align 8 dereferenceable(8) %0) #1 comdat align 2 {
  %2 = alloca ptr, align 8
  store ptr %0, ptr %2, align 8
  %3 = load ptr, ptr %2, align 8
  %4 = getelementptr inbounds %class.Handle, ptr %3, i32 0, i32 0
  %5 = load ptr, ptr %4, align 8
  %6 = icmp eq ptr %5, null
  br i1 %6, label %7, label %8

7:                                                ; preds = %1
  br label %12

8:                                                ; preds = %1
  %9 = getelementptr inbounds %class.Handle, ptr %3, i32 0, i32 0
  %10 = load ptr, ptr %9, align 8
  %11 = load ptr, ptr %10, align 8
  br label %12

12:                                               ; preds = %8, %7
  %13 = phi ptr [ null, %7 ], [ %11, %8 ]
  ret ptr %13
}

; Function Attrs: mustprogress nounwind uwtable
define linkonce_odr hidden noundef ptr @_ZNK6Symbol4baseEv(ptr noundef nonnull align 4 dereferenceable(8) %0) #1 comdat align 2 {
  %2 = alloca ptr, align 8
  store ptr %0, ptr %2, align 8
  %3 = load ptr, ptr %2, align 8
  %4 = getelementptr inbounds %class.Symbol, ptr %3, i32 0, i32 2
  %5 = getelementptr inbounds [2 x i8], ptr %4, i64 0, i64 0
  ret ptr %5
}

; Function Attrs: mustprogress nounwind uwtable
define linkonce_odr hidden noundef i32 @_ZNK6Symbol6lengthEv(ptr noundef nonnull align 4 dereferenceable(8) %0) #1 comdat align 2 {
  %2 = alloca ptr, align 8
  store ptr %0, ptr %2, align 8
  %3 = load ptr, ptr %2, align 8
  %4 = getelementptr inbounds %class.Symbol, ptr %3, i32 0, i32 1
  %5 = load i16, ptr %4, align 4
  %6 = zext i16 %5 to i32
  ret i32 %6
}

; Function Attrs: mustprogress nounwind uwtable
define linkonce_odr hidden void @_ZN15MutexLockerImplD2Ev(ptr noundef nonnull align 8 dereferenceable(8) %0) unnamed_addr #1 comdat align 2 {
  %2 = alloca ptr, align 8
  store ptr %0, ptr %2, align 8
  %3 = load ptr, ptr %2, align 8
  %4 = getelementptr inbounds %class.MutexLockerImpl, ptr %3, i32 0, i32 0
  %5 = load ptr, ptr %4, align 8
  %6 = icmp ne ptr %5, null
  br i1 %6, label %7, label %10

7:                                                ; preds = %1
  %8 = getelementptr inbounds %class.MutexLockerImpl, ptr %3, i32 0, i32 0
  %9 = load ptr, ptr %8, align 8
  call void @_ZN5Mutex6unlockEv(ptr noundef nonnull align 8 dereferenceable(104) %9)
  br label %10

10:                                               ; preds = %7, %1
  ret void
}

; Function Attrs: mustprogress nounwind uwtable
define linkonce_odr hidden noundef ptr @_ZN15ClassLoaderData17class_loader_dataEP7oopDesc(ptr noundef %0) #1 comdat align 2 {
  %2 = alloca ptr, align 8
  %3 = alloca ptr, align 8
  store ptr %0, ptr %2, align 8
  %4 = load ptr, ptr %2, align 8
  %5 = call noundef ptr @_ZN15ClassLoaderData25class_loader_data_or_nullEP7oopDesc(ptr noundef %4)
  store ptr %5, ptr %3, align 8
  %6 = load ptr, ptr %3, align 8
  ret ptr %6
}

; Function Attrs: mustprogress nounwind uwtable
define linkonce_odr hidden noundef ptr @_ZNK6HandleclEv(ptr noundef nonnull align 8 dereferenceable(8) %0) #1 comdat align 2 {
  %2 = alloca ptr, align 8
  store ptr %0, ptr %2, align 8
  %3 = load ptr, ptr %2, align 8
  %4 = call noundef ptr @_ZNK6Handle3objEv(ptr noundef nonnull align 8 dereferenceable(8) %3)
  ret ptr %4
}

; Function Attrs: mustprogress nounwind uwtable
define linkonce_odr hidden void @_ZN15MutexLockerImplC2EP6ThreadP5MutexNS2_18SafepointCheckFlagE(ptr noundef nonnull align 8 dereferenceable(8) %0, ptr noundef %1, ptr noundef %2, i32 noundef %3) unnamed_addr #1 comdat align 2 {
  %5 = alloca ptr, align 8
  %6 = alloca ptr, align 8
  %7 = alloca ptr, align 8
  %8 = alloca i32, align 4
  %9 = alloca i8, align 1
  store ptr %0, ptr %5, align 8
  store ptr %1, ptr %6, align 8
  store ptr %2, ptr %7, align 8
  store i32 %3, ptr %8, align 4
  %10 = load ptr, ptr %5, align 8
  %11 = getelementptr inbounds %class.MutexLockerImpl, ptr %10, i32 0, i32 0
  %12 = load ptr, ptr %7, align 8
  store ptr %12, ptr %11, align 8
  %13 = load i32, ptr %8, align 4
  %14 = icmp eq i32 %13, 1
  %15 = zext i1 %14 to i8
  store i8 %15, ptr %9, align 1
  %16 = getelementptr inbounds %class.MutexLockerImpl, ptr %10, i32 0, i32 0
  %17 = load ptr, ptr %16, align 8
  %18 = icmp ne ptr %17, null
  br i1 %18, label %19, label %31

19:                                               ; preds = %4
  %20 = load i8, ptr %9, align 1
  %21 = trunc i8 %20 to i1
  br i1 %21, label %22, label %26

22:                                               ; preds = %19
  %23 = getelementptr inbounds %class.MutexLockerImpl, ptr %10, i32 0, i32 0
  %24 = load ptr, ptr %23, align 8
  %25 = load ptr, ptr %6, align 8
  call void @_ZN5Mutex28lock_without_safepoint_checkEP6Thread(ptr noundef nonnull align 8 dereferenceable(104) %24, ptr noundef %25)
  br label %30

26:                                               ; preds = %19
  %27 = getelementptr inbounds %class.MutexLockerImpl, ptr %10, i32 0, i32 0
  %28 = load ptr, ptr %27, align 8
  %29 = load ptr, ptr %6, align 8
  call void @_ZN5Mutex4lockEP6Thread(ptr noundef nonnull align 8 dereferenceable(104) %28, ptr noundef %29)
  br label %30

30:                                               ; preds = %26, %22
  br label %31

31:                                               ; preds = %30, %4
  ret void
}

; Function Attrs: mustprogress nounwind uwtable
define linkonce_odr hidden noundef signext i8 @_ZNK6Symbol7char_atEi(ptr noundef nonnull align 4 dereferenceable(8) %0, i32 noundef %1) #1 comdat align 2 {
  %3 = alloca ptr, align 8
  %4 = alloca i32, align 4
  store ptr %0, ptr %3, align 8
  store i32 %1, ptr %4, align 4
  %5 = load ptr, ptr %3, align 8
  %6 = call noundef ptr @_ZNK6Symbol4baseEv(ptr noundef nonnull align 4 dereferenceable(8) %5)
  %7 = load i32, ptr %4, align 4
  %8 = sext i32 %7 to i64
  %9 = getelementptr inbounds i8, ptr %6, i64 %8
  %10 = load i8, ptr %9, align 1
  ret i8 %10
}

; Function Attrs: mustprogress nounwind uwtable
define linkonce_odr hidden noundef i32 @_ZNK6Symbol11utf8_lengthEv(ptr noundef nonnull align 4 dereferenceable(8) %0) #1 comdat align 2 {
  %2 = alloca ptr, align 8
  store ptr %0, ptr %2, align 8
  %3 = load ptr, ptr %2, align 8
  %4 = call noundef i32 @_ZNK6Symbol6lengthEv(ptr noundef nonnull align 4 dereferenceable(8) %3)
  ret i32 %4
}

; Function Attrs: mustprogress nounwind uwtable
define linkonce_odr hidden void @_ZN11MutexLockerD2Ev(ptr noundef nonnull align 8 dereferenceable(8) %0) unnamed_addr #1 comdat align 2 {
  %2 = alloca ptr, align 8
  store ptr %0, ptr %2, align 8
  %3 = load ptr, ptr %2, align 8
  call void @_ZN15MutexLockerImplD2Ev(ptr noundef nonnull align 8 dereferenceable(8) %3) #9
  ret void
}

; Function Attrs: mustprogress nounwind uwtable
define linkonce_odr hidden noundef ptr @_Z17class_loader_data6Handle(ptr %0) #1 comdat {
  %2 = alloca %class.Handle, align 8
  %3 = getelementptr inbounds %class.Handle, ptr %2, i32 0, i32 0
  store ptr %0, ptr %3, align 8
  %4 = call noundef ptr @_ZNK6HandleclEv(ptr noundef nonnull align 8 dereferenceable(8) %2)
  %5 = call noundef ptr @_ZN15ClassLoaderData17class_loader_dataEP7oopDesc(ptr noundef %4)
  ret ptr %5
}

; Function Attrs: mustprogress nounwind uwtable
define linkonce_odr hidden noundef ptr @_ZN15SignatureStream9as_symbolEv(ptr noundef nonnull align 8 dereferenceable(48) %0) #1 comdat align 2 {
  %2 = alloca ptr, align 8
  store ptr %0, ptr %2, align 8
  %3 = load ptr, ptr %2, align 8
  %4 = call noundef ptr @_ZN15SignatureStream11find_symbolEv(ptr noundef nonnull align 8 dereferenceable(48) %3)
  ret ptr %4
}

; Function Attrs: mustprogress nounwind uwtable
define linkonce_odr hidden void @_ZN11MutexLockerC2EP6ThreadP5MutexNS2_18SafepointCheckFlagE(ptr noundef nonnull align 8 dereferenceable(8) %0, ptr noundef %1, ptr noundef %2, i32 noundef %3) unnamed_addr #1 comdat align 2 {
  %5 = alloca ptr, align 8
  %6 = alloca ptr, align 8
  %7 = alloca ptr, align 8
  %8 = alloca i32, align 4
  store ptr %0, ptr %5, align 8
  store ptr %1, ptr %6, align 8
  store ptr %2, ptr %7, align 8
  store i32 %3, ptr %8, align 4
  %9 = load ptr, ptr %5, align 8
  %10 = load ptr, ptr %6, align 8
  %11 = load ptr, ptr %7, align 8
  %12 = load i32, ptr %8, align 4
  call void @_ZN15MutexLockerImplC2EP6ThreadP5MutexNS2_18SafepointCheckFlagE(ptr noundef nonnull align 8 dereferenceable(8) %9, ptr noundef %10, ptr noundef %11, i32 noundef %12)
  ret void
}

; Function Attrs: mustprogress nounwind uwtable
define linkonce_odr hidden noundef ptr @_ZN8Universe14typeArrayKlassE9BasicType(i8 noundef zeroext %0) #1 comdat align 2 {
  %2 = alloca i8, align 1
  store i8 %0, ptr %2, align 1
  %3 = load i8, ptr %2, align 1
  %4 = zext i8 %3 to i64
  %5 = getelementptr inbounds [12 x ptr], ptr @_ZN8Universe17_typeArrayKlassesE, i64 0, i64 %4
  %6 = load ptr, ptr %5, align 8
  ret ptr %6
}

; Function Attrs: mustprogress nounwind uwtable
define linkonce_odr hidden noundef zeroext i8 @_ZNK15SignatureStream4typeEv(ptr noundef nonnull align 8 dereferenceable(48) %0) #1 comdat align 2 {
  %2 = alloca ptr, align 8
  store ptr %0, ptr %2, align 8
  %3 = load ptr, ptr %2, align 8
  %4 = getelementptr inbounds %class.SignatureStream, ptr %3, i32 0, i32 5
  %5 = load i8, ptr %4, align 8
  ret i8 %5
}

; Function Attrs: mustprogress nounwind uwtable
define linkonce_odr hidden noundef i32 @_ZN15SignatureStream17skip_array_prefixEv(ptr noundef nonnull align 8 dereferenceable(48) %0) #1 comdat align 2 {
  %2 = alloca i32, align 4
  %3 = alloca ptr, align 8
  store ptr %0, ptr %3, align 8
  %4 = load ptr, ptr %3, align 8
  %5 = getelementptr inbounds %class.SignatureStream, ptr %4, i32 0, i32 5
  %6 = load i8, ptr %5, align 8
  %7 = zext i8 %6 to i32
  %8 = icmp ne i32 %7, 13
  br i1 %8, label %9, label %10

9:                                                ; preds = %1
  store i32 0, ptr %2, align 4
  br label %12

10:                                               ; preds = %1
  %11 = call noundef i32 @_ZN15SignatureStream23skip_whole_array_prefixEv(ptr noundef nonnull align 8 dereferenceable(48) %4)
  store i32 %11, ptr %2, align 4
  br label %12

12:                                               ; preds = %10, %9
  %13 = load i32, ptr %2, align 4
  ret i32 %13
}

; Function Attrs: mustprogress nounwind uwtable
define linkonce_odr hidden noundef zeroext i1 @_ZN9Signature8is_arrayEPK6Symbol(ptr noundef %0) #1 comdat align 2 {
  %2 = alloca ptr, align 8
  store ptr %0, ptr %2, align 8
  %3 = load ptr, ptr %2, align 8
  %4 = call noundef i32 @_ZNK6Symbol11utf8_lengthEv(ptr noundef nonnull align 4 dereferenceable(8) %3)
  %5 = icmp sgt i32 %4, 1
  br i1 %5, label %6, label %14

6:                                                ; preds = %1
  %7 = load ptr, ptr %2, align 8
  %8 = call noundef signext i8 @_ZNK6Symbol7char_atEi(ptr noundef nonnull align 4 dereferenceable(8) %7, i32 noundef 0)
  %9 = sext i8 %8 to i32
  %10 = icmp eq i32 %9, 91
  br i1 %10, label %11, label %14

11:                                               ; preds = %6
  %12 = load ptr, ptr %2, align 8
  %13 = call noundef zeroext i1 @_ZN9Signature24is_valid_array_signatureEPK6Symbol(ptr noundef %12)
  br label %14

14:                                               ; preds = %11, %6, %1
  %15 = phi i1 [ false, %6 ], [ false, %1 ], [ %13, %11 ]
  ret i1 %15
}

; Function Attrs: mustprogress nounwind uwtable
define linkonce_odr hidden void @_ZN6HandleC2Ev(ptr noundef nonnull align 8 dereferenceable(8) %0) unnamed_addr #1 comdat align 2 {
  %2 = alloca ptr, align 8
  store ptr %0, ptr %2, align 8
  %3 = load ptr, ptr %2, align 8
  %4 = getelementptr inbounds %class.Handle, ptr %3, i32 0, i32 0
  store ptr null, ptr %4, align 8
  ret void
}

; Function Attrs: mustprogress nounwind uwtable
define hidden noundef ptr @_ZN16SystemDictionary40find_constrained_instance_or_array_klassEP6ThreadP6Symbol6Handle(ptr noundef %0, ptr noundef %1, ptr %2) #1 align 2 {
  %4 = alloca ptr, align 8
  %5 = alloca %class.Handle, align 8
  %6 = alloca ptr, align 8
  %7 = alloca ptr, align 8
  %8 = alloca %class.Handle, align 8
  %9 = alloca ptr, align 8
  %10 = alloca %class.Handle, align 8
  %11 = alloca %class.Handle, align 8
  %12 = alloca %class.SignatureStream, align 8
  %13 = alloca i32, align 4
  %14 = alloca i8, align 1
  %15 = alloca %class.MutexLocker, align 8
  %16 = alloca %class.Handle, align 8
  %17 = alloca %class.MutexLocker, align 8
  %18 = alloca %class.Handle, align 8
  %19 = getelementptr inbounds %class.Handle, ptr %5, i32 0, i32 0
  store ptr %2, ptr %19, align 8
  store ptr %0, ptr %6, align 8
  store ptr %1, ptr %7, align 8
  call void @_ZN6HandleC2Ev(ptr noundef nonnull align 8 dereferenceable(8) %8)
  %20 = load ptr, ptr %6, align 8
  %21 = load ptr, ptr %7, align 8
  call void @llvm.memcpy.p0.p0.i64(ptr align 8 %10, ptr align 8 %5, i64 8, i1 false)
  call void @llvm.memcpy.p0.p0.i64(ptr align 8 %11, ptr align 8 %8, i64 8, i1 false)
  %22 = getelementptr inbounds %class.Handle, ptr %10, i32 0, i32 0
  %23 = load ptr, ptr %22, align 8
  %24 = getelementptr inbounds %class.Handle, ptr %11, i32 0, i32 0
  %25 = load ptr, ptr %24, align 8
  %26 = call noundef ptr @_ZN16SystemDictionary28find_instance_or_array_klassEP6ThreadP6Symbol6HandleS4_(ptr noundef %20, ptr noundef %21, ptr %23, ptr %25)
  store ptr %26, ptr %9, align 8
  %27 = load ptr, ptr %9, align 8
  %28 = icmp ne ptr %27, null
  br i1 %28, label %29, label %31

29:                                               ; preds = %3
  %30 = load ptr, ptr %9, align 8
  store ptr %30, ptr %4, align 8
  br label %73

31:                                               ; preds = %3
  %32 = load ptr, ptr %7, align 8
  %33 = call noundef zeroext i1 @_ZN9Signature8is_arrayEPK6Symbol(ptr noundef %32)
  br i1 %33, label %34, label %63

34:                                               ; preds = %31
  %35 = load ptr, ptr %7, align 8
  call void @_ZN15SignatureStreamC1EPK6Symbolb(ptr noundef nonnull align 8 dereferenceable(48) %12, ptr noundef %35, i1 noundef zeroext false)
  %36 = call noundef i32 @_ZN15SignatureStream17skip_array_prefixEv(ptr noundef nonnull align 8 dereferenceable(48) %12)
  store i32 %36, ptr %13, align 4
  %37 = call noundef zeroext i8 @_ZNK15SignatureStream4typeEv(ptr noundef nonnull align 8 dereferenceable(48) %12)
  store i8 %37, ptr %14, align 1
  %38 = load i8, ptr %14, align 1
  %39 = zext i8 %38 to i32
  %40 = icmp ne i32 %39, 12
  br i1 %40, label %41, label %44

41:                                               ; preds = %34
  %42 = load i8, ptr %14, align 1
  %43 = call noundef ptr @_ZN8Universe14typeArrayKlassE9BasicType(i8 noundef zeroext %42)
  store ptr %43, ptr %9, align 8
  br label %52

44:                                               ; preds = %34
  %45 = load ptr, ptr %6, align 8
  %46 = load ptr, ptr @SystemDictionary_lock, align 8
  call void @_ZN11MutexLockerC2EP6ThreadP5MutexNS2_18SafepointCheckFlagE(ptr noundef nonnull align 8 dereferenceable(8) %15, ptr noundef %45, ptr noundef %46, i32 noundef 0)
  %47 = call noundef ptr @_ZN15SignatureStream9as_symbolEv(ptr noundef nonnull align 8 dereferenceable(48) %12)
  call void @llvm.memcpy.p0.p0.i64(ptr align 8 %16, ptr align 8 %5, i64 8, i1 false)
  %48 = getelementptr inbounds %class.Handle, ptr %16, i32 0, i32 0
  %49 = load ptr, ptr %48, align 8
  %50 = call noundef ptr @_Z17class_loader_data6Handle(ptr %49)
  %51 = call noundef ptr @_ZN21LoaderConstraintTable22find_constrained_klassEP6SymbolP15ClassLoaderData(ptr noundef %47, ptr noundef %50)
  store ptr %51, ptr %9, align 8
  call void @_ZN11MutexLockerD2Ev(ptr noundef nonnull align 8 dereferenceable(8) %15) #9
  br label %52

52:                                               ; preds = %44, %41
  %53 = load ptr, ptr %9, align 8
  %54 = icmp ne ptr %53, null
  br i1 %54, label %55, label %62

55:                                               ; preds = %52
  %56 = load ptr, ptr %9, align 8
  %57 = load i32, ptr %13, align 4
  %58 = load ptr, ptr %56, align 8
  %59 = getelementptr inbounds ptr, ptr %58, i64 27
  %60 = load ptr, ptr %59, align 8
  %61 = call noundef ptr %60(ptr noundef nonnull align 8 dereferenceable(196) %56, i32 noundef %57)
  store ptr %61, ptr %9, align 8
  br label %62

62:                                               ; preds = %55, %52
  call void @_ZN15SignatureStreamD1Ev(ptr noundef nonnull align 8 dereferenceable(48) %12) #9
  br label %71

63:                                               ; preds = %31
  %64 = load ptr, ptr %6, align 8
  %65 = load ptr, ptr @SystemDictionary_lock, align 8
  call void @_ZN11MutexLockerC2EP6ThreadP5MutexNS2_18SafepointCheckFlagE(ptr noundef nonnull align 8 dereferenceable(8) %17, ptr noundef %64, ptr noundef %65, i32 noundef 0)
  %66 = load ptr, ptr %7, align 8
  call void @llvm.memcpy.p0.p0.i64(ptr align 8 %18, ptr align 8 %5, i64 8, i1 false)
  %67 = getelementptr inbounds %class.Handle, ptr %18, i32 0, i32 0
  %68 = load ptr, ptr %67, align 8
  %69 = call noundef ptr @_Z17class_loader_data6Handle(ptr %68)
  %70 = call noundef ptr @_ZN21LoaderConstraintTable22find_constrained_klassEP6SymbolP15ClassLoaderData(ptr noundef %66, ptr noundef %69)
  store ptr %70, ptr %9, align 8
  call void @_ZN11MutexLockerD2Ev(ptr noundef nonnull align 8 dereferenceable(8) %17) #9
  br label %71

71:                                               ; preds = %63, %62
  %72 = load ptr, ptr %9, align 8
  store ptr %72, ptr %4, align 8
  br label %73

73:                                               ; preds = %71, %29
  %74 = load ptr, ptr %4, align 8
  ret ptr %74
}