; Function Attrs: mustprogress nounwind uwtable
define hidden noundef ptr @_ZN16SystemDictionary40find_constrained_instance_or_array_klassEP6ThreadP6Symbol6Handle(ptr noundef %0, ptr noundef %1, ptr %2) local_unnamed_addr #0 align 2 {
  %4 = alloca %class.SignatureStream, align 8
  %5 = tail call noundef ptr @_ZN16SystemDictionary28find_instance_or_array_klassEP6ThreadP6Symbol6HandleS4_(ptr noundef %0, ptr noundef %1, ptr %2, ptr null)
  %.not = icmp eq ptr %5, null
  br i1 %.not, label %6, label %_ZN11MutexLockerD2Ev.exit31

6:                                                ; preds = %3
  %7 = getelementptr inbounds i8, ptr %1, i64 4
  %8 = load i16, ptr %7, align 4
  %9 = icmp ugt i16 %8, 1
  br i1 %9, label %10, label %_ZN9Signature8is_arrayEPK6Symbol.exit.thread

10:                                               ; preds = %6
  %11 = getelementptr inbounds i8, ptr %1, i64 6
  %12 = load i8, ptr %11, align 1
  %13 = icmp eq i8 %12, 91
  br i1 %13, label %_ZN9Signature8is_arrayEPK6Symbol.exit, label %_ZN9Signature8is_arrayEPK6Symbol.exit.thread

_ZN9Signature8is_arrayEPK6Symbol.exit:            ; preds = %10
  %14 = tail call noundef zeroext i1 @_ZN9Signature24is_valid_array_signatureEPK6Symbol(ptr noundef nonnull %1) #14
  br i1 %14, label %15, label %_ZN9Signature8is_arrayEPK6Symbol.exit.thread

15:                                               ; preds = %_ZN9Signature8is_arrayEPK6Symbol.exit
  call void @_ZN15SignatureStreamC1EPK6Symbolb(ptr noundef nonnull align 8 dereferenceable(48) %4, ptr noundef nonnull %1, i1 noundef zeroext false) #14
  %16 = getelementptr inbounds i8, ptr %4, i64 24
  %17 = load i8, ptr %16, align 8
  %.not.i = icmp eq i8 %17, 13
  br i1 %.not.i, label %18, label %_ZN15SignatureStream17skip_array_prefixEv.exit

18:                                               ; preds = %15
  %19 = call noundef i32 @_ZN15SignatureStream23skip_whole_array_prefixEv(ptr noundef nonnull align 8 dereferenceable(48) %4) #14
  %.pr = load i8, ptr %16, align 8
  br label %_ZN15SignatureStream17skip_array_prefixEv.exit

_ZN15SignatureStream17skip_array_prefixEv.exit:   ; preds = %15, %18
  %20 = phi i8 [ %17, %15 ], [ %.pr, %18 ]
  %.0.i = phi i32 [ 0, %15 ], [ %19, %18 ]
  %.not21 = icmp eq i8 %20, 12
  br i1 %.not21, label %25, label %21

21:                                               ; preds = %_ZN15SignatureStream17skip_array_prefixEv.exit
  %22 = zext i8 %20 to i64
  %23 = getelementptr inbounds [12 x ptr], ptr @_ZN8Universe17_typeArrayKlassesE, i64 0, i64 %22
  %24 = load ptr, ptr %23, align 8
  br label %_ZN11MutexLockerD2Ev.exit

25:                                               ; preds = %_ZN15SignatureStream17skip_array_prefixEv.exit
  %26 = load ptr, ptr @SystemDictionary_lock, align 8
  %.not.i.i = icmp eq ptr %26, null
  br i1 %.not.i.i, label %_ZN11MutexLockerC2EP6ThreadP5MutexNS2_18SafepointCheckFlagE.exit, label %27

27:                                               ; preds = %25
  call void @_ZN5Mutex4lockEP6Thread(ptr noundef nonnull align 8 dereferenceable(104) %26, ptr noundef %0) #14
  br label %_ZN11MutexLockerC2EP6ThreadP5MutexNS2_18SafepointCheckFlagE.exit

_ZN11MutexLockerC2EP6ThreadP5MutexNS2_18SafepointCheckFlagE.exit: ; preds = %25, %27
  %28 = call noundef ptr @_ZN15SignatureStream11find_symbolEv(ptr noundef nonnull align 8 dereferenceable(48) %4) #14
  %29 = icmp eq ptr %2, null
  br i1 %29, label %_ZNK6HandleclEv.exit.thread.i, label %_ZNK6HandleclEv.exit.i

_ZNK6HandleclEv.exit.i:                           ; preds = %_ZN11MutexLockerC2EP6ThreadP5MutexNS2_18SafepointCheckFlagE.exit
  %30 = load ptr, ptr %2, align 8
  %31 = icmp eq ptr %30, null
  br i1 %31, label %_ZNK6HandleclEv.exit.thread.i, label %33

_ZNK6HandleclEv.exit.thread.i:                    ; preds = %_ZNK6HandleclEv.exit.i, %_ZN11MutexLockerC2EP6ThreadP5MutexNS2_18SafepointCheckFlagE.exit
  %32 = load ptr, ptr @_ZN15ClassLoaderData27_the_null_class_loader_dataE, align 8
  br label %_Z17class_loader_data6Handle.exit

33:                                               ; preds = %_ZNK6HandleclEv.exit.i
  %34 = call noundef ptr @_ZN21java_lang_ClassLoader19loader_data_acquireEP7oopDesc(ptr noundef nonnull %30) #14
  br label %_Z17class_loader_data6Handle.exit

_Z17class_loader_data6Handle.exit:                ; preds = %_ZNK6HandleclEv.exit.thread.i, %33
  %.0.i.i.i = phi ptr [ %32, %_ZNK6HandleclEv.exit.thread.i ], [ %34, %33 ]
  %35 = call noundef ptr @_ZN21LoaderConstraintTable22find_constrained_klassEP6SymbolP15ClassLoaderData(ptr noundef %28, ptr noundef %.0.i.i.i) #14
  br i1 %.not.i.i, label %_ZN11MutexLockerD2Ev.exit, label %36

36:                                               ; preds = %_Z17class_loader_data6Handle.exit
  call void @_ZN5Mutex6unlockEv(ptr noundef nonnull align 8 dereferenceable(104) %26) #14
  br label %_ZN11MutexLockerD2Ev.exit

_ZN11MutexLockerD2Ev.exit:                        ; preds = %36, %_Z17class_loader_data6Handle.exit, %21
  %.019 = phi ptr [ %24, %21 ], [ %35, %_Z17class_loader_data6Handle.exit ], [ %35, %36 ]
  %.not22 = icmp eq ptr %.019, null
  br i1 %.not22, label %42, label %37

37:                                               ; preds = %_ZN11MutexLockerD2Ev.exit
  %38 = load ptr, ptr %.019, align 8
  %39 = getelementptr inbounds i8, ptr %38, i64 216
  %40 = load ptr, ptr %39, align 8
  %41 = call noundef ptr %40(ptr noundef nonnull align 8 dereferenceable(196) %.019, i32 noundef %.0.i) #14
  br label %42

42:                                               ; preds = %37, %_ZN11MutexLockerD2Ev.exit
  %.1 = phi ptr [ %41, %37 ], [ null, %_ZN11MutexLockerD2Ev.exit ]
  call void @_ZN15SignatureStreamD1Ev(ptr noundef nonnull align 8 dereferenceable(48) %4) #14
  br label %_ZN11MutexLockerD2Ev.exit31

_ZN9Signature8is_arrayEPK6Symbol.exit.thread:     ; preds = %6, %10, %_ZN9Signature8is_arrayEPK6Symbol.exit
  %43 = load ptr, ptr @SystemDictionary_lock, align 8
  %.not.i.i24 = icmp eq ptr %43, null
  br i1 %.not.i.i24, label %_ZN11MutexLockerC2EP6ThreadP5MutexNS2_18SafepointCheckFlagE.exit25, label %44

44:                                               ; preds = %_ZN9Signature8is_arrayEPK6Symbol.exit.thread
  tail call void @_ZN5Mutex4lockEP6Thread(ptr noundef nonnull align 8 dereferenceable(104) %43, ptr noundef %0) #14
  br label %_ZN11MutexLockerC2EP6ThreadP5MutexNS2_18SafepointCheckFlagE.exit25

_ZN11MutexLockerC2EP6ThreadP5MutexNS2_18SafepointCheckFlagE.exit25: ; preds = %_ZN9Signature8is_arrayEPK6Symbol.exit.thread, %44
  %45 = icmp eq ptr %2, null
  br i1 %45, label %_ZNK6HandleclEv.exit.thread.i28, label %_ZNK6HandleclEv.exit.i26

_ZNK6HandleclEv.exit.i26:                         ; preds = %_ZN11MutexLockerC2EP6ThreadP5MutexNS2_18SafepointCheckFlagE.exit25
  %46 = load ptr, ptr %2, align 8
  %47 = icmp eq ptr %46, null
  br i1 %47, label %_ZNK6HandleclEv.exit.thread.i28, label %49

_ZNK6HandleclEv.exit.thread.i28:                  ; preds = %_ZNK6HandleclEv.exit.i26, %_ZN11MutexLockerC2EP6ThreadP5MutexNS2_18SafepointCheckFlagE.exit25
  %48 = load ptr, ptr @_ZN15ClassLoaderData27_the_null_class_loader_dataE, align 8
  br label %_Z17class_loader_data6Handle.exit29

49:                                               ; preds = %_ZNK6HandleclEv.exit.i26
  %50 = tail call noundef ptr @_ZN21java_lang_ClassLoader19loader_data_acquireEP7oopDesc(ptr noundef nonnull %46) #14
  br label %_Z17class_loader_data6Handle.exit29

_Z17class_loader_data6Handle.exit29:              ; preds = %_ZNK6HandleclEv.exit.thread.i28, %49
  %.0.i.i.i27 = phi ptr [ %48, %_ZNK6HandleclEv.exit.thread.i28 ], [ %50, %49 ]
  %51 = tail call noundef ptr @_ZN21LoaderConstraintTable22find_constrained_klassEP6SymbolP15ClassLoaderData(ptr noundef nonnull %1, ptr noundef %.0.i.i.i27) #14
  br i1 %.not.i.i24, label %_ZN11MutexLockerD2Ev.exit31, label %52

52:                                               ; preds = %_Z17class_loader_data6Handle.exit29
  tail call void @_ZN5Mutex6unlockEv(ptr noundef nonnull align 8 dereferenceable(104) %43) #14
  br label %_ZN11MutexLockerD2Ev.exit31

_ZN11MutexLockerD2Ev.exit31:                      ; preds = %52, %_Z17class_loader_data6Handle.exit29, %42, %3
  %.0 = phi ptr [ %5, %3 ], [ %.1, %42 ], [ %51, %_Z17class_loader_data6Handle.exit29 ], [ %51, %52 ]
  ret ptr %.0
}